(dp0
S'es'
p1
(lp2
I0
aI0
aI0
aI1
aI1
aI1
aI2
aI2
aI2
aI3
aI3
aI3
asS't_loss'
p3
(lp4
sS'ts'
p5
(lp6
I0
aI10
aI20
aI0
aI10
aI20
aI0
aI10
aI20
aI0
aI10
aI20
asS'mean_r'
p7
(lp8
cnumpy.core.multiarray
scalar
p9
(cnumpy
dtype
p10
(S'f8'
p11
I0
I1
tp12
Rp13
(I3
S'<'
p14
NNNI-1
I-1
I0
tp15
bS'\xfdl\x92v4\xa73\xc0'
p16
tp17
Rp18
ag9
(g13
S'\xae9\x14\x89N\xbe)\xc0'
p19
tp20
Rp21
ag9
(g13
S"J\xb8\xc3J\xfc\xb8'\xc0"
p22
tp23
Rp24
ag9
(g13
S'\xe9\x1a$\x0bWN)\xc0'
p25
tp26
Rp27
ag9
(g13
S'\x1a(;t\xee\xc6%\xc0'
p28
tp29
Rp30
ag9
(g13
S'\xa5\x85\xd0\x9f\x03\xa0&\xc0'
p31
tp32
Rp33
ag9
(g13
S'\xf3q\x1a\xe0\x89\xb9(\xc0'
p34
tp35
Rp36
ag9
(g13
S'\xb6\xbb\x1ay\x84\xc3(\xc0'
p37
tp38
Rp39
ag9
(g13
S'\xa4\xee\x02W\xa9;(\xc0'
p40
tp41
Rp42
ag9
(g13
S'D\xcd?~5\xe8(\xc0'
p43
tp44
Rp45
ag9
(g13
S'\xd4\r\x0e\x8ccj)\xc0'
p46
tp47
Rp48
ag9
(g13
S'\xf2\x9d\xbf\xb1\xef\xed%\xc0'
p49
tp50
Rp51
asS'tr_loss'
p52
(lp53
F11.569040923700825
aF3.576885907264441
aF1.8903074927203096
aF1.3681034599978357
aF1.3434122299430562
aF1.0946455986618064
aF1.2813736498921486
aF1.1107481351925166
aF1.1936709802476844
aF0.9788727401433419
aF1.126317928041054
aF1.0415941842432928
as.