(dp0
S'es'
p1
(lp2
I0
aI0
aI0
aI0
aI0
aI0
aI0
aI0
aI0
aI0
aI0
aI0
aI0
aI0
aI0
aI0
aI0
aI0
aI0
aI0
aI0
aI0
aI0
aI0
aI0
aI0
aI0
aI0
asS't_loss'
p3
(lp4
sS'ts'
p5
(lp6
I0
aI1
aI2
aI3
aI4
aI5
aI6
aI7
aI8
aI9
aI10
aI11
aI12
aI13
aI14
aI15
aI16
aI17
aI18
aI19
aI20
aI21
aI22
aI23
aI24
aI25
aI26
aI27
asS'mean_r'
p7
(lp8
cnumpy.core.multiarray
scalar
p9
(cnumpy
dtype
p10
(S'f8'
p11
I0
I1
tp12
Rp13
(I3
S'<'
p14
NNNI-1
I-1
I0
tp15
bS'x\x9b\xd7\xce\x9e|3\xc0'
p16
tp17
Rp18
ag9
(g13
S"\x9a+\xd5'\x1aZ2\xc0"
p19
tp20
Rp21
ag9
(g13
S'\xa8\xd1\xee\xa3\xe4\x940\xc0'
p22
tp23
Rp24
ag9
(g13
S'\x9b\xd9\x85C\x9fe+\xc0'
p25
tp26
Rp27
ag9
(g13
S"\x03\xd3.\xc6\xcc\xae'\xc0"
p28
tp29
Rp30
ag9
(g13
S'E\x0c\x0eu\x8d\xdd)\xc0'
p31
tp32
Rp33
ag9
(g13
S'\xcc\x96\xd6\xe4HB(\xc0'
p34
tp35
Rp36
ag9
(g13
S"Z\x00\xaa\x7f\xdaR'\xc0"
p37
tp38
Rp39
ag9
(g13
S'3\xef1\xf6\x856*\xc0'
p40
tp41
Rp42
ag9
(g13
S'\x03\xa3\x98\xee\xa8\xa6)\xc0'
p43
tp44
Rp45
ag9
(g13
S"\x1a\xc5\x9d\xdd\x1c\xdd'\xc0"
p46
tp47
Rp48
ag9
(g13
S"\x00\xe5\xaeF\xc4&'\xc0"
p49
tp50
Rp51
ag9
(g13
S'\xf6\xf4\x99U\xb0D)\xc0'
p52
tp53
Rp54
ag9
(g13
S'm\x96\x05\x18\xd7\xee%\xc0'
p55
tp56
Rp57
ag9
(g13
S"\xe1RH\xa2\xc5S'\xc0"
p58
tp59
Rp60
ag9
(g13
S"\x92\x1aX\x9cb\xe6'\xc0"
p61
tp62
Rp63
ag9
(g13
S"\xfa\x00\x97w\x19\xf1'\xc0"
p64
tp65
Rp66
ag9
(g13
S'\x9d\x86l\n\xf8\x08&\xc0'
p67
tp68
Rp69
ag9
(g13
S'<\xf3\x11\x99\xe3U&\xc0'
p70
tp71
Rp72
ag9
(g13
S"?\x87\x9e:\xcd\xd4'\xc0"
p73
tp74
Rp75
ag9
(g13
S'\x01Q\x88\xfe9b&\xc0'
p76
tp77
Rp78
ag9
(g13
S'\n\x14\x80\xc5U@(\xc0'
p79
tp80
Rp81
ag9
(g13
S'\xd1\\\x7fU\xfd\x05(\xc0'
p82
tp83
Rp84
ag9
(g13
S'3\x99\xd9.c )\xc0'
p85
tp86
Rp87
ag9
(g13
S'\xe9\x9a\x13\xc8\xf73(\xc0'
p88
tp89
Rp90
ag9
(g13
S'\xe4\xa9a\x94\x8b\xe4(\xc0'
p91
tp92
Rp93
ag9
(g13
S'\xd7\x1b,<\xd6C(\xc0'
p94
tp95
Rp96
ag9
(g13
S'd~@\xf49\x1d(\xc0'
p97
tp98
Rp99
asS'tr_loss'
p100
(lp101
F6.528340410617368
aF6.459034836762948
aF6.425721538031431
aF6.358040206587123
aF6.300823788139926
aF6.286470329485857
aF6.229747634177025
aF6.162768270895633
aF6.061822274358875
aF6.116216866326008
aF5.985178373864182
aF5.865917330069414
aF5.91886929013668
aF5.8915984016429235
aF5.778180107574611
aF5.703530478387134
aF5.75203501356701
aF5.678878333965775
aF5.602872386998195
aF5.696051048980955
aF5.562307543304326
aF5.6105553334955
aF5.533688085785883
aF5.506136008304478
aF5.357054646185264
aF5.39694996821575
aF5.545066404755819
aF5.630055029526493
as.